; Function Attrs: mustprogress nounwind uwtable
define void @_ZN4LIEF2PE9SignatureC2Ev(ptr noundef nonnull align 8 dereferenceable(120) %0) unnamed_addr #1 align 2 {
  tail call void @_ZN4LIEF6ObjectC2Ev(ptr noundef nonnull align 8 dereferenceable(8) %0) #21
  store ptr getelementptr inbounds nuw inrange(-16, 40) (i8, ptr @_ZTVN4LIEF2PE9SignatureE, i64 16), ptr %0, align 8, !tbaa !3
  %2 = getelementptr inbounds nuw i8, ptr %0, i64 8
  store i32 0, ptr %2, align 8, !tbaa !6
  %3 = getelementptr inbounds nuw i8, ptr %0, i64 12
  store i32 0, ptr %3, align 4, !tbaa !37
  %4 = getelementptr inbounds nuw i8, ptr %0, i64 16
  tail call void @_ZN4LIEF2PE11ContentInfoC1Ev(ptr noundef nonnull align 8 dereferenceable(16) %4) #21
  %5 = getelementptr inbounds nuw i8, ptr %0, i64 32
  tail call void @llvm.memset.p0.i64(ptr noundef nonnull align 8 dereferenceable(88) %5, i8 0, i64 88, i1 false)
  ret void
}